target datalayout = "e-m:e-p270:32:32-p271:32:32-p272:64:64-i64:64-i128:128-f80:128-n8:16:32:64-S128"
target triple = "x86_64-pc-linux-gnu"

%"class.folly::symbolizer::ElfFile" = type { [512 x i8], i32, ptr, i64, %"struct.folly::symbolizer::ElfFileId", i64 }
%"struct.folly::symbolizer::ElfFileId" = type { i64, i64, i64, i64 }

; Function Attrs: mustprogress nounwind uwtable
define void @_ZN5folly10symbolizer7ElfFileC2Ev(ptr noundef nonnull align 8 dereferenceable(576) %0) unnamed_addr #0 align 2 {
  %2 = alloca ptr, align 8
  store ptr %0, ptr %2, align 8, !tbaa !7
  %3 = load ptr, ptr %2, align 8
  %4 = getelementptr inbounds nuw %"class.folly::symbolizer::ElfFile", ptr %3, i32 0, i32 0
  %5 = getelementptr inbounds i8, ptr %4, i64 512
  br label %6

6:                                                ; preds = %6, %1
  %7 = phi ptr [ %4, %1 ], [ %8, %6 ]
  store i8 0, ptr %7, align 1, !tbaa !12
  %8 = getelementptr inbounds i8, ptr %7, i64 1
  %9 = icmp eq ptr %8, %5
  br i1 %9, label %10, label %6

10:                                               ; preds = %6
  %11 = getelementptr inbounds nuw %"class.folly::symbolizer::ElfFile", ptr %3, i32 0, i32 1
  store i32 -1, ptr %11, align 8, !tbaa !13
  %12 = getelementptr inbounds nuw %"class.folly::symbolizer::ElfFile", ptr %3, i32 0, i32 2
  store ptr inttoptr (i64 -1 to ptr), ptr %12, align 8, !tbaa !19
  %13 = getelementptr inbounds nuw %"class.folly::symbolizer::ElfFile", ptr %3, i32 0, i32 3
  store i64 0, ptr %13, align 8, !tbaa !20
  %14 = getelementptr inbounds nuw %"class.folly::symbolizer::ElfFile", ptr %3, i32 0, i32 4
  call void @llvm.memset.p0.i64(ptr align 8 %14, i8 0, i64 32, i1 false)
  %15 = getelementptr inbounds nuw %"class.folly::symbolizer::ElfFile", ptr %3, i32 0, i32 5
  store i64 0, ptr %15, align 8, !tbaa !21
  ret void
}