; Function Attrs: mustprogress nofree norecurse nosync nounwind willreturn memory(argmem: write) uwtable
define void @_ZN5folly10symbolizer7ElfFileC2Ev(ptr noundef nonnull writeonly align 8 captures(none) dereferenceable(576) initializes((0, 516), (520, 576)) %0) unnamed_addr #0 align 2 {
  tail call void @llvm.memset.p0.i64(ptr noundef nonnull align 8 dereferenceable(512) %0, i8 0, i64 512, i1 false), !tbaa !7
  %2 = getelementptr inbounds nuw i8, ptr %0, i64 512
  store i32 -1, ptr %2, align 8, !tbaa !10
  %3 = getelementptr inbounds nuw i8, ptr %0, i64 520
  store ptr inttoptr (i64 -1 to ptr), ptr %3, align 8, !tbaa !17
  %4 = getelementptr inbounds nuw i8, ptr %0, i64 528
  tail call void @llvm.memset.p0.i64(ptr noundef nonnull align 8 dereferenceable(48) %4, i8 0, i64 48, i1 false)
  ret void
}